; Function Attrs: null_pointer_is_valid sspstrong uwtable
define internal i32 @dissect_per_T_direct_reference(ptr noundef %0, i32 noundef %1, ptr noundef captures(address_is_null) %2, ptr noundef %3, i32 noundef %4) #0 {
  %6 = alloca ptr, align 8
  %.not = icmp eq ptr %2, null
  br i1 %.not, label %7, label %8

7:                                                ; preds = %5
  tail call void (ptr, ...) @proto_report_dissector_bug(ptr noundef nonnull @.str.23, ptr noundef nonnull @.str.24, i32 noundef 2649, ptr noundef nonnull @.str.187) #12
  unreachable

8:                                                ; preds = %5
  call void @llvm.lifetime.start.p0(i64 8, ptr nonnull %6) #13
  store ptr null, ptr %6, align 8
  %9 = call fastcc i32 @dissect_per_any_oid(ptr noundef %0, i32 noundef %1, ptr noundef nonnull %2, ptr noundef %3, i32 noundef %4, ptr noundef nonnull %6, i1 noundef zeroext true)
  %10 = load ptr, ptr %6, align 8
  %.not15.i.i = icmp eq ptr %10, null
  br i1 %.not15.i.i, label %dissect_per_object_identifier_str.exit, label %11

11:                                               ; preds = %8
  %12 = call i32 @tvb_captured_length(ptr noundef nonnull %10)
  %.not16.i.i = icmp eq i32 %12, 0
  br i1 %.not16.i.i, label %dissect_per_object_identifier_str.exit, label %13

13:                                               ; preds = %11
  %14 = getelementptr inbounds nuw i8, ptr %2, i64 16
  %15 = load ptr, ptr %14, align 8
  %16 = getelementptr inbounds nuw i8, ptr %15, i64 408
  %17 = load ptr, ptr %16, align 8
  %18 = load ptr, ptr %6, align 8
  %19 = call ptr @tvb_get_ptr(ptr noundef %18, i32 noundef 0, i32 noundef %12)
  %20 = call ptr @oid_encoded2string(ptr noundef %17, ptr noundef %19, i32 noundef %12)
  br label %dissect_per_object_identifier_str.exit

dissect_per_object_identifier_str.exit:           ; preds = %8, %11, %13
  %.sink.i.i = phi ptr [ %20, %13 ], [ @.str.172, %11 ], [ @.str.172, %8 ]
  %21 = getelementptr inbounds nuw i8, ptr %2, i64 72
  store ptr %.sink.i.i, ptr %21, align 8
  call void @llvm.lifetime.end.p0(i64 8, ptr nonnull %6) #13
  %22 = getelementptr inbounds nuw i8, ptr %2, i64 61
  store i8 1, ptr %22, align 1
  ret i32 %9
}